target datalayout = "e-m:e-p270:32:32-p271:32:32-p272:64:64-i64:64-i128:128-f80:128-n8:16:32:64-S128"
target triple = "x86_64-pc-linux-gnu"

%struct.PKCS12_SAFEBAG_st = type { ptr, %union.anon, ptr }
%union.anon = type { ptr }
%struct.pkcs12_bag_st = type { ptr, %union.anon.0 }
%union.anon.0 = type { ptr }

@.str = private unnamed_addr constant [36 x i8] c"../openssl/crypto/pkcs12/p12_sbag.c\00", align 1
@__func__.PKCS12_SAFEBAG_create_secret = private unnamed_addr constant [29 x i8] c"PKCS12_SAFEBAG_create_secret\00", align 1

; Function Attrs: nounwind uwtable
define ptr @PKCS12_SAFEBAG_create_secret(i32 noundef %0, i32 noundef %1, ptr noundef %2, i32 noundef %3) #0 {
  %5 = alloca ptr, align 8
  %6 = alloca i32, align 4
  %7 = alloca i32, align 4
  %8 = alloca ptr, align 8
  %9 = alloca i32, align 4
  %10 = alloca ptr, align 8
  %11 = alloca ptr, align 8
  %12 = alloca i32, align 4
  %13 = alloca ptr, align 8
  store i32 %0, ptr %6, align 4, !tbaa !8
  store i32 %1, ptr %7, align 4, !tbaa !8
  store ptr %2, ptr %8, align 8, !tbaa !22
  store i32 %3, ptr %9, align 4, !tbaa !8
  call void @llvm.lifetime.start.p0(i64 8, ptr %10) #3
  call void @llvm.lifetime.start.p0(i64 8, ptr %11) #3
  %14 = call ptr @PKCS12_BAGS_new()
  store ptr %14, ptr %10, align 8, !tbaa !28
  %15 = icmp eq ptr %14, null
  br i1 %15, label %16, label %17

16:                                               ; preds = %4
  call void @ERR_new()
  call void @ERR_set_debug(ptr noundef @.str, i32 noundef 159, ptr noundef @__func__.PKCS12_SAFEBAG_create_secret)
  call void (i32, i32, ptr, ...) @ERR_set_error(i32 noundef 35, i32 noundef 524301, ptr noundef null)
  store ptr null, ptr %5, align 8
  store i32 1, ptr %12, align 4
  br label %70

17:                                               ; preds = %4
  %18 = load i32, ptr %6, align 4, !tbaa !8
  %19 = call ptr @OBJ_nid2obj(i32 noundef %18)
  %20 = load ptr, ptr %10, align 8, !tbaa !28
  %21 = getelementptr inbounds nuw %struct.pkcs12_bag_st, ptr %20, i32 0, i32 0
  store ptr %19, ptr %21, align 8, !tbaa !18
  %22 = load i32, ptr %7, align 4, !tbaa !8
  switch i32 %22, label %55 [
    i32 4, label %23
  ]

23:                                               ; preds = %17
  call void @llvm.lifetime.start.p0(i64 8, ptr %13) #3
  %24 = call ptr @ASN1_OCTET_STRING_new()
  store ptr %24, ptr %13, align 8, !tbaa !30
  %25 = load ptr, ptr %13, align 8, !tbaa !30
  %26 = icmp eq ptr %25, null
  br i1 %26, label %27, label %28

27:                                               ; preds = %23
  call void @ERR_new()
  call void @ERR_set_debug(ptr noundef @.str, i32 noundef 170, ptr noundef @__func__.PKCS12_SAFEBAG_create_secret)
  call void (i32, i32, ptr, ...) @ERR_set_error(i32 noundef 35, i32 noundef 524301, ptr noundef null)
  store i32 3, ptr %12, align 4
  br label %52

28:                                               ; preds = %23
  %29 = load ptr, ptr %13, align 8, !tbaa !30
  %30 = load ptr, ptr %8, align 8, !tbaa !22
  %31 = load i32, ptr %9, align 4, !tbaa !8
  %32 = call i32 @ASN1_OCTET_STRING_set(ptr noundef %29, ptr noundef %30, i32 noundef %31)
  %33 = icmp ne i32 %32, 0
  br i1 %33, label %36, label %34

34:                                               ; preds = %28
  %35 = load ptr, ptr %13, align 8, !tbaa !30
  call void @ASN1_OCTET_STRING_free(ptr noundef %35)
  call void @ERR_new()
  call void @ERR_set_debug(ptr noundef @.str, i32 noundef 176, ptr noundef @__func__.PKCS12_SAFEBAG_create_secret)
  call void (i32, i32, ptr, ...) @ERR_set_error(i32 noundef 35, i32 noundef 102, ptr noundef null)
  store i32 3, ptr %12, align 4
  br label %52

36:                                               ; preds = %28
  %37 = call ptr @ASN1_TYPE_new()
  %38 = load ptr, ptr %10, align 8, !tbaa !28
  %39 = getelementptr inbounds nuw %struct.pkcs12_bag_st, ptr %38, i32 0, i32 1
  store ptr %37, ptr %39, align 8, !tbaa !16
  %40 = load ptr, ptr %10, align 8, !tbaa !28
  %41 = getelementptr inbounds nuw %struct.pkcs12_bag_st, ptr %40, i32 0, i32 1
  %42 = load ptr, ptr %41, align 8, !tbaa !16
  %43 = icmp eq ptr %42, null
  br i1 %43, label %44, label %46

44:                                               ; preds = %36
  %45 = load ptr, ptr %13, align 8, !tbaa !30
  call void @ASN1_OCTET_STRING_free(ptr noundef %45)
  call void @ERR_new()
  call void @ERR_set_debug(ptr noundef @.str, i32 noundef 182, ptr noundef @__func__.PKCS12_SAFEBAG_create_secret)
  call void (i32, i32, ptr, ...) @ERR_set_error(i32 noundef 35, i32 noundef 524301, ptr noundef null)
  store i32 3, ptr %12, align 4
  br label %52

46:                                               ; preds = %36
  %47 = load ptr, ptr %10, align 8, !tbaa !28
  %48 = getelementptr inbounds nuw %struct.pkcs12_bag_st, ptr %47, i32 0, i32 1
  %49 = load ptr, ptr %48, align 8, !tbaa !16
  %50 = load i32, ptr %7, align 4, !tbaa !8
  %51 = load ptr, ptr %13, align 8, !tbaa !30
  call void @ASN1_TYPE_set(ptr noundef %49, i32 noundef %50, ptr noundef %51)
  store i32 0, ptr %12, align 4
  br label %52

52:                                               ; preds = %44, %34, %27, %46
  call void @llvm.lifetime.end.p0(i64 8, ptr %13) #3
  %53 = load i32, ptr %12, align 4
  switch i32 %53, label %70 [
    i32 0, label %54
    i32 3, label %68
  ]

54:                                               ; preds = %52
  br label %56

55:                                               ; preds = %17
  call void @ERR_new()
  call void @ERR_set_debug(ptr noundef @.str, i32 noundef 190, ptr noundef @__func__.PKCS12_SAFEBAG_create_secret)
  call void (i32, i32, ptr, ...) @ERR_set_error(i32 noundef 35, i32 noundef 112, ptr noundef null)
  br label %68

56:                                               ; preds = %54
  %57 = call ptr @PKCS12_SAFEBAG_new()
  store ptr %57, ptr %11, align 8, !tbaa !3
  %58 = icmp eq ptr %57, null
  br i1 %58, label %59, label %60

59:                                               ; preds = %56
  call void @ERR_new()
  call void @ERR_set_debug(ptr noundef @.str, i32 noundef 195, ptr noundef @__func__.PKCS12_SAFEBAG_create_secret)
  call void (i32, i32, ptr, ...) @ERR_set_error(i32 noundef 35, i32 noundef 524301, ptr noundef null)
  br label %68

60:                                               ; preds = %56
  %61 = load ptr, ptr %10, align 8, !tbaa !28
  %62 = load ptr, ptr %11, align 8, !tbaa !3
  %63 = getelementptr inbounds nuw %struct.PKCS12_SAFEBAG_st, ptr %62, i32 0, i32 1
  store ptr %61, ptr %63, align 8, !tbaa !16
  %64 = call ptr @OBJ_nid2obj(i32 noundef 154)
  %65 = load ptr, ptr %11, align 8, !tbaa !3
  %66 = getelementptr inbounds nuw %struct.PKCS12_SAFEBAG_st, ptr %65, i32 0, i32 0
  store ptr %64, ptr %66, align 8, !tbaa !17
  %67 = load ptr, ptr %11, align 8, !tbaa !3
  store ptr %67, ptr %5, align 8
  store i32 1, ptr %12, align 4
  br label %70

68:                                               ; preds = %52, %59, %55
  %69 = load ptr, ptr %10, align 8, !tbaa !28
  call void @PKCS12_BAGS_free(ptr noundef %69)
  store ptr null, ptr %5, align 8
  store i32 1, ptr %12, align 4
  br label %70

70:                                               ; preds = %68, %60, %52, %16
  call void @llvm.lifetime.end.p0(i64 8, ptr %11) #3
  call void @llvm.lifetime.end.p0(i64 8, ptr %10) #3
  %71 = load ptr, ptr %5, align 8
  ret ptr %71
}