; Function Attrs: nounwind uwtable
define ptr @PKCS12_SAFEBAG_create_secret(i32 noundef %0, i32 noundef %1, ptr noundef %2, i32 noundef %3) local_unnamed_addr #0 {
  %5 = tail call ptr @PKCS12_BAGS_new() #4
  %6 = icmp eq ptr %5, null
  br i1 %6, label %7, label %8

7:                                                ; preds = %4
  tail call void @ERR_new() #4
  tail call void @ERR_set_debug(ptr noundef nonnull @.str, i32 noundef 159, ptr noundef nonnull @__func__.PKCS12_SAFEBAG_create_secret) #4
  tail call void (i32, i32, ptr, ...) @ERR_set_error(i32 noundef 35, i32 noundef 524301, ptr noundef null) #4
  br label %25

8:                                                ; preds = %4
  %9 = tail call ptr @OBJ_nid2obj(i32 noundef %0) #4
  store ptr %9, ptr %5, align 8, !tbaa !12
  %cond = icmp eq i32 %1, 4
  br i1 %cond, label %10, label %.thread

10:                                               ; preds = %8
  %11 = tail call ptr @ASN1_OCTET_STRING_new() #4
  %12 = icmp eq ptr %11, null
  br i1 %12, label %.thread, label %13

13:                                               ; preds = %10
  %14 = tail call i32 @ASN1_OCTET_STRING_set(ptr noundef nonnull %11, ptr noundef %2, i32 noundef %3) #4
  %.not = icmp eq i32 %14, 0
  br i1 %.not, label %.thread.sink.split, label %15

15:                                               ; preds = %13
  %16 = tail call ptr @ASN1_TYPE_new() #4
  %17 = getelementptr inbounds nuw i8, ptr %5, i64 8
  store ptr %16, ptr %17, align 8, !tbaa !11
  %18 = icmp eq ptr %16, null
  br i1 %18, label %.thread.sink.split, label %19

19:                                               ; preds = %15
  tail call void @ASN1_TYPE_set(ptr noundef nonnull %16, i32 noundef 4, ptr noundef nonnull %11) #4
  %20 = tail call ptr @PKCS12_SAFEBAG_new() #4
  %21 = icmp eq ptr %20, null
  br i1 %21, label %.thread, label %22

22:                                               ; preds = %19
  %23 = getelementptr inbounds nuw i8, ptr %20, i64 8
  store ptr %5, ptr %23, align 8, !tbaa !11
  %24 = tail call ptr @OBJ_nid2obj(i32 noundef 154) #4
  store ptr %24, ptr %20, align 8, !tbaa !10
  br label %25

.thread.sink.split:                               ; preds = %15, %13
  %.sink27.ph = phi i32 [ 176, %13 ], [ 182, %15 ]
  %.sink.ph = phi i32 [ 102, %13 ], [ 524301, %15 ]
  tail call void @ASN1_OCTET_STRING_free(ptr noundef nonnull %11) #4
  br label %.thread

.thread:                                          ; preds = %.thread.sink.split, %19, %8, %10
  %.sink27 = phi i32 [ 170, %10 ], [ 190, %8 ], [ 195, %19 ], [ %.sink27.ph, %.thread.sink.split ]
  %.sink = phi i32 [ 524301, %10 ], [ 112, %8 ], [ 524301, %19 ], [ %.sink.ph, %.thread.sink.split ]
  tail call void @ERR_new() #4
  tail call void @ERR_set_debug(ptr noundef nonnull @.str, i32 noundef %.sink27, ptr noundef nonnull @__func__.PKCS12_SAFEBAG_create_secret) #4
  tail call void (i32, i32, ptr, ...) @ERR_set_error(i32 noundef 35, i32 noundef %.sink, ptr noundef null) #4
  tail call void @PKCS12_BAGS_free(ptr noundef nonnull %5) #4
  br label %25

25:                                               ; preds = %.thread, %22, %7
  %.0 = phi ptr [ null, %7 ], [ null, %.thread ], [ %20, %22 ]
  ret ptr %.0
}